target datalayout = "e-m:e-p270:32:32-p271:32:32-p272:64:64-i64:64-i128:128-f80:128-n8:16:32:64-S128"
target triple = "x86_64-pc-linux-gnu"

%struct.expert_field = type { i32, i32 }
%struct.nstime_t = type { i64, i32 }
%struct._address = type { i32, i32, ptr, ptr }
%struct._packet_info = type { ptr, ptr, i32, i32, %struct.nstime_t, %struct.nstime_t, %struct.nstime_t, i8, ptr, ptr, ptr, ptr, %struct._address, %struct._address, %struct._address, %struct._address, %struct._address, %struct._address, i32, ptr, i8, [3 x i8], %struct.anon, i32, i32, i32, i32, ptr, i8, ptr, ptr, i16, i16, i32, i32, i16, i32, i32, ptr, ptr, ptr, i8, i8, i16, i16, i16, i32, i16, i16, ptr, ptr, ptr, ptr, ptr, i32, i32 }
%struct.anon = type { i8, [3 x i8] }
%struct._proto_node = type { ptr, ptr, ptr, ptr, ptr, ptr, ptr }
%struct.field_info = type { ptr, i32, i32, i32, i32, i32, i32, ptr, ptr, ptr, i32, i32 }

@hf_rtpproxy_notify_ipv4 = internal global i32 0, align 4
@hf_rtpproxy_notify_ipv6 = internal global i32 0, align 4
@hf_rtpproxy_notify_port = internal global i32 0, align 4
@ei_rtpproxy_notify_no_ip = internal global %struct.expert_field zeroinitializer, align 4
@ei_rtpproxy_bad_ipv4 = internal global %struct.expert_field zeroinitializer, align 4
@ei_rtpproxy_bad_ipv6 = internal global %struct.expert_field zeroinitializer, align 4

; Function Attrs: inlinehint nounwind null_pointer_is_valid sspstrong uwtable
define internal void @proto_item_set_generated(ptr noundef %0) #5 {
  %2 = alloca ptr, align 8
  store ptr %0, ptr %2, align 8
  %3 = load ptr, ptr %2, align 8
  %4 = icmp ne ptr %3, null
  br i1 %4, label %5, label %24

5:                                                ; preds = %1
  br label %6

6:                                                ; preds = %5
  %7 = load ptr, ptr %2, align 8
  %8 = getelementptr inbounds nuw %struct._proto_node, ptr %7, i32 0, i32 5
  %9 = load ptr, ptr %8, align 8
  %10 = icmp ne ptr %9, null
  br i1 %10, label %11, label %22

11:                                               ; preds = %6
  %12 = load ptr, ptr %2, align 8
  %13 = getelementptr inbounds nuw %struct._proto_node, ptr %12, i32 0, i32 5
  %14 = load ptr, ptr %13, align 8
  %15 = getelementptr inbounds nuw %struct.field_info, ptr %14, i32 0, i32 6
  %16 = load i32, ptr %15, align 4
  %17 = or i32 %16, 2
  %18 = load ptr, ptr %2, align 8
  %19 = getelementptr inbounds nuw %struct._proto_node, ptr %18, i32 0, i32 5
  %20 = load ptr, ptr %19, align 8
  %21 = getelementptr inbounds nuw %struct.field_info, ptr %20, i32 0, i32 6
  store i32 %17, ptr %21, align 4
  br label %22

22:                                               ; preds = %11, %6
  br label %23

23:                                               ; preds = %22
  br label %24

24:                                               ; preds = %23, %1
  ret void
}

; Function Attrs: alwaysinline nounwind
define internal ptr @memcpy.inline(ptr noalias %0, ptr noalias %1, i64 %2) #7 {
  %4 = alloca ptr, align 8
  %5 = alloca ptr, align 8
  %6 = alloca i64, align 8
  store ptr %0, ptr %4, align 8
  store ptr %1, ptr %5, align 8
  store i64 %2, ptr %6, align 8
  %7 = load ptr, ptr %4, align 8
  %8 = load ptr, ptr %5, align 8
  %9 = load i64, ptr %6, align 8
  %10 = load ptr, ptr %4, align 8
  %11 = call i64 @llvm.objectsize.i64.p0(ptr %10, i1 false, i1 true, i1 true)
  %12 = call ptr @__memcpy_chk(ptr noundef %7, ptr noundef %8, i64 noundef %9, i64 noundef %11) #12
  ret ptr %12
}

; Function Attrs: null_pointer_is_valid sspstrong uwtable
define internal void @rtpproxy_add_notify_addr(ptr noundef %0, ptr noundef %1, ptr noundef %2, i32 noundef %3, i32 noundef %4) #0 {
  %6 = alloca ptr, align 8
  %7 = alloca ptr, align 8
  %8 = alloca ptr, align 8
  %9 = alloca i32, align 4
  %10 = alloca i32, align 4
  %11 = alloca i32, align 4
  %12 = alloca i32, align 4
  %13 = alloca i8, align 1
  %14 = alloca [4 x i32], align 16
  %15 = alloca ptr, align 8
  %16 = alloca i32, align 4
  store ptr %0, ptr %6, align 8
  store ptr %1, ptr %7, align 8
  store ptr %2, ptr %8, align 8
  store i32 %3, ptr %9, align 4
  store i32 %4, ptr %10, align 4
  call void @llvm.lifetime.start.p0(i64 4, ptr %11) #12
  store i32 0, ptr %11, align 4
  call void @llvm.lifetime.start.p0(i64 4, ptr %12) #12
  call void @llvm.lifetime.start.p0(i64 1, ptr %13) #12
  store i8 0, ptr %13, align 1
  call void @llvm.lifetime.start.p0(i64 16, ptr %14) #12
  %17 = load ptr, ptr %6, align 8
  %18 = load i32, ptr %9, align 4
  %19 = load i32, ptr %10, align 4
  %20 = call i32 @tvb_find_uint8(ptr noundef %17, i32 noundef %18, i32 noundef %19, i8 noundef zeroext 58)
  store i32 %20, ptr %11, align 4
  %21 = load i32, ptr %11, align 4
  %22 = icmp ne i32 %21, -1
  br i1 %22, label %23, label %126

23:                                               ; preds = %5
  br label %24

24:                                               ; preds = %31, %23
  %25 = load ptr, ptr %6, align 8
  %26 = load i32, ptr %11, align 4
  %27 = add i32 %26, 1
  %28 = load i32, ptr %10, align 4
  %29 = call i32 @tvb_find_uint8(ptr noundef %25, i32 noundef %27, i32 noundef %28, i8 noundef zeroext 58)
  store i32 %29, ptr %12, align 4
  %30 = icmp ne i32 %29, -1
  br i1 %30, label %31, label %33

31:                                               ; preds = %24
  store i8 1, ptr %13, align 1
  %32 = load i32, ptr %12, align 4
  store i32 %32, ptr %11, align 4
  br label %24, !llvm.loop !12

33:                                               ; preds = %24
  %34 = load i8, ptr %13, align 1, !range !8, !noundef !9
  %35 = trunc i8 %34 to i1
  br i1 %35, label %36, label %68

36:                                               ; preds = %33
  %37 = load ptr, ptr %7, align 8
  %38 = getelementptr inbounds nuw %struct._packet_info, ptr %37, i32 0, i32 51
  %39 = load ptr, ptr %38, align 8
  %40 = load ptr, ptr %6, align 8
  %41 = load i32, ptr %9, align 4
  %42 = load i32, ptr %11, align 4
  %43 = load i32, ptr %9, align 4
  %44 = sub i32 %42, %43
  %45 = call ptr @tvb_get_string_enc(ptr noundef %39, ptr noundef %40, i32 noundef %41, i32 noundef %44, i32 noundef 0)
  %46 = getelementptr inbounds [4 x i32], ptr %14, i64 0, i64 0
  %47 = call zeroext i1 @str_to_ip6(ptr noundef %45, ptr noundef %46)
  br i1 %47, label %48, label %58

48:                                               ; preds = %36
  %49 = load ptr, ptr %8, align 8
  %50 = load i32, ptr @hf_rtpproxy_notify_ipv6, align 4
  %51 = load ptr, ptr %6, align 8
  %52 = load i32, ptr %9, align 4
  %53 = load i32, ptr %11, align 4
  %54 = load i32, ptr %9, align 4
  %55 = sub i32 %53, %54
  %56 = getelementptr inbounds [4 x i32], ptr %14, i64 0, i64 0
  %57 = call ptr @proto_tree_add_ipv6(ptr noundef %49, i32 noundef %50, ptr noundef %51, i32 noundef %52, i32 noundef %55, ptr noundef %56)
  br label %67

58:                                               ; preds = %36
  %59 = load ptr, ptr %8, align 8
  %60 = load ptr, ptr %7, align 8
  %61 = load ptr, ptr %6, align 8
  %62 = load i32, ptr %9, align 4
  %63 = load i32, ptr %11, align 4
  %64 = load i32, ptr %9, align 4
  %65 = sub i32 %63, %64
  %66 = call ptr @proto_tree_add_expert(ptr noundef %59, ptr noundef %60, ptr noundef @ei_rtpproxy_bad_ipv6, ptr noundef %61, i32 noundef %62, i32 noundef %65)
  br label %67

67:                                               ; preds = %58, %48
  br label %101

68:                                               ; preds = %33
  %69 = load ptr, ptr %7, align 8
  %70 = getelementptr inbounds nuw %struct._packet_info, ptr %69, i32 0, i32 51
  %71 = load ptr, ptr %70, align 8
  %72 = load ptr, ptr %6, align 8
  %73 = load i32, ptr %9, align 4
  %74 = load i32, ptr %11, align 4
  %75 = load i32, ptr %9, align 4
  %76 = sub i32 %74, %75
  %77 = call ptr @tvb_get_string_enc(ptr noundef %71, ptr noundef %72, i32 noundef %73, i32 noundef %76, i32 noundef 0)
  %78 = getelementptr inbounds [4 x i32], ptr %14, i64 0, i64 0
  %79 = call zeroext i1 @str_to_ip(ptr noundef %77, ptr noundef %78)
  br i1 %79, label %80, label %91

80:                                               ; preds = %68
  %81 = load ptr, ptr %8, align 8
  %82 = load i32, ptr @hf_rtpproxy_notify_ipv4, align 4
  %83 = load ptr, ptr %6, align 8
  %84 = load i32, ptr %9, align 4
  %85 = load i32, ptr %11, align 4
  %86 = load i32, ptr %9, align 4
  %87 = sub i32 %85, %86
  %88 = getelementptr [4 x i32], ptr %14, i64 0, i64 0
  %89 = load i32, ptr %88, align 16
  %90 = call ptr @proto_tree_add_ipv4(ptr noundef %81, i32 noundef %82, ptr noundef %83, i32 noundef %84, i32 noundef %87, i32 noundef %89)
  br label %100

91:                                               ; preds = %68
  %92 = load ptr, ptr %8, align 8
  %93 = load ptr, ptr %7, align 8
  %94 = load ptr, ptr %6, align 8
  %95 = load i32, ptr %9, align 4
  %96 = load i32, ptr %11, align 4
  %97 = load i32, ptr %9, align 4
  %98 = sub i32 %96, %97
  %99 = call ptr @proto_tree_add_expert(ptr noundef %92, ptr noundef %93, ptr noundef @ei_rtpproxy_bad_ipv4, ptr noundef %94, i32 noundef %95, i32 noundef %98)
  br label %100

100:                                              ; preds = %91, %80
  br label %101

101:                                              ; preds = %100, %67
  %102 = load ptr, ptr %8, align 8
  %103 = load i32, ptr @hf_rtpproxy_notify_port, align 4
  %104 = load ptr, ptr %6, align 8
  %105 = load i32, ptr %11, align 4
  %106 = add i32 %105, 1
  %107 = load i32, ptr %10, align 4
  %108 = load i32, ptr %11, align 4
  %109 = add i32 %108, 1
  %110 = sub i32 %107, %109
  %111 = load ptr, ptr %7, align 8
  %112 = getelementptr inbounds nuw %struct._packet_info, ptr %111, i32 0, i32 51
  %113 = load ptr, ptr %112, align 8
  %114 = load ptr, ptr %6, align 8
  %115 = load i32, ptr %11, align 4
  %116 = add i32 %115, 1
  %117 = load i32, ptr %10, align 4
  %118 = load i32, ptr %11, align 4
  %119 = add i32 %118, 1
  %120 = sub i32 %117, %119
  %121 = call ptr @tvb_get_string_enc(ptr noundef %113, ptr noundef %114, i32 noundef %116, i32 noundef %120, i32 noundef 0)
  %122 = call i64 @g_ascii_strtoull(ptr noundef %121, ptr noundef null, i32 noundef 10)
  %123 = trunc i64 %122 to i16
  %124 = zext i16 %123 to i32
  %125 = call ptr @proto_tree_add_uint(ptr noundef %102, i32 noundef %103, ptr noundef %104, i32 noundef %106, i32 noundef %110, i32 noundef %124)
  br label %190

126:                                              ; preds = %5
  call void @llvm.lifetime.start.p0(i64 8, ptr %15) #12
  store ptr null, ptr %15, align 8
  %127 = load ptr, ptr %7, align 8
  %128 = load ptr, ptr %8, align 8
  %129 = call ptr @expert_add_info(ptr noundef %127, ptr noundef %128, ptr noundef @ei_rtpproxy_notify_no_ip)
  %130 = load ptr, ptr %7, align 8
  %131 = getelementptr inbounds nuw %struct._packet_info, ptr %130, i32 0, i32 16
  %132 = getelementptr inbounds nuw %struct._address, ptr %131, i32 0, i32 0
  %133 = load i32, ptr %132, align 8
  %134 = icmp eq i32 %133, 2
  br i1 %134, label %135, label %147

135:                                              ; preds = %126
  call void @llvm.lifetime.start.p0(i64 4, ptr %16) #12
  %136 = load ptr, ptr %7, align 8
  %137 = getelementptr inbounds nuw %struct._packet_info, ptr %136, i32 0, i32 16
  %138 = getelementptr inbounds nuw %struct._address, ptr %137, i32 0, i32 2
  %139 = load ptr, ptr %138, align 8
  %140 = call ptr @memcpy.inline(ptr noundef %16, ptr noundef %139, i64 noundef 4) #12
  %141 = load ptr, ptr %8, align 8
  %142 = load i32, ptr @hf_rtpproxy_notify_ipv4, align 4
  %143 = load ptr, ptr %6, align 8
  %144 = load i32, ptr %9, align 4
  %145 = load i32, ptr %16, align 4
  %146 = call ptr @proto_tree_add_ipv4(ptr noundef %141, i32 noundef %142, ptr noundef %143, i32 noundef %144, i32 noundef 0, i32 noundef %145)
  store ptr %146, ptr %15, align 8
  call void @llvm.lifetime.end.p0(i64 4, ptr %16) #12
  br label %164

147:                                              ; preds = %126
  %148 = load ptr, ptr %7, align 8
  %149 = getelementptr inbounds nuw %struct._packet_info, ptr %148, i32 0, i32 16
  %150 = getelementptr inbounds nuw %struct._address, ptr %149, i32 0, i32 0
  %151 = load i32, ptr %150, align 8
  %152 = icmp eq i32 %151, 3
  br i1 %152, label %153, label %163

153:                                              ; preds = %147
  %154 = load ptr, ptr %8, align 8
  %155 = load i32, ptr @hf_rtpproxy_notify_ipv6, align 4
  %156 = load ptr, ptr %6, align 8
  %157 = load i32, ptr %9, align 4
  %158 = load ptr, ptr %7, align 8
  %159 = getelementptr inbounds nuw %struct._packet_info, ptr %158, i32 0, i32 16
  %160 = getelementptr inbounds nuw %struct._address, ptr %159, i32 0, i32 2
  %161 = load ptr, ptr %160, align 8
  %162 = call ptr @proto_tree_add_ipv6(ptr noundef %154, i32 noundef %155, ptr noundef %156, i32 noundef %157, i32 noundef 0, ptr noundef %161)
  store ptr %162, ptr %15, align 8
  br label %163

163:                                              ; preds = %153, %147
  br label %164

164:                                              ; preds = %163, %135
  %165 = load ptr, ptr %15, align 8
  %166 = icmp ne ptr %165, null
  br i1 %166, label %167, label %189

167:                                              ; preds = %164
  %168 = load ptr, ptr %15, align 8
  call void @proto_item_set_generated(ptr noundef %168)
  %169 = load ptr, ptr %8, align 8
  %170 = load i32, ptr @hf_rtpproxy_notify_port, align 4
  %171 = load ptr, ptr %6, align 8
  %172 = load i32, ptr %9, align 4
  %173 = load i32, ptr %10, align 4
  %174 = load i32, ptr %9, align 4
  %175 = sub i32 %173, %174
  %176 = load ptr, ptr %7, align 8
  %177 = getelementptr inbounds nuw %struct._packet_info, ptr %176, i32 0, i32 51
  %178 = load ptr, ptr %177, align 8
  %179 = load ptr, ptr %6, align 8
  %180 = load i32, ptr %9, align 4
  %181 = load i32, ptr %10, align 4
  %182 = load i32, ptr %9, align 4
  %183 = sub i32 %181, %182
  %184 = call ptr @tvb_get_string_enc(ptr noundef %178, ptr noundef %179, i32 noundef %180, i32 noundef %183, i32 noundef 0)
  %185 = call i64 @g_ascii_strtoull(ptr noundef %184, ptr noundef null, i32 noundef 10)
  %186 = trunc i64 %185 to i16
  %187 = zext i16 %186 to i32
  %188 = call ptr @proto_tree_add_uint(ptr noundef %169, i32 noundef %170, ptr noundef %171, i32 noundef %172, i32 noundef %175, i32 noundef %187)
  br label %189

189:                                              ; preds = %167, %164
  call void @llvm.lifetime.end.p0(i64 8, ptr %15) #12
  br label %190

190:                                              ; preds = %189, %101
  call void @llvm.lifetime.end.p0(i64 16, ptr %14) #12
  call void @llvm.lifetime.end.p0(i64 1, ptr %13) #12
  call void @llvm.lifetime.end.p0(i64 4, ptr %12) #12
  call void @llvm.lifetime.end.p0(i64 4, ptr %11) #12
  ret void
}