; Function Attrs: null_pointer_is_valid sspstrong uwtable
define internal fastcc void @rtpproxy_add_notify_addr(ptr noundef %0, ptr noundef %1, ptr noundef %2, i32 noundef %3, i32 noundef %4) unnamed_addr #0 {
  %6 = alloca [4 x i32], align 16
  call void @llvm.lifetime.start.p0(i64 16, ptr nonnull %6) #10
  %7 = tail call i32 @tvb_find_uint8(ptr noundef %0, i32 noundef %3, i32 noundef %4, i8 noundef zeroext 58)
  %.not = icmp eq i32 %7, -1
  br i1 %.not, label %40, label %.preheader

.preheader:                                       ; preds = %5, %.preheader
  %.075 = phi i32 [ %9, %.preheader ], [ %7, %5 ]
  %.074 = phi i1 [ true, %.preheader ], [ false, %5 ]
  %8 = add nuw i32 %.075, 1
  %9 = tail call i32 @tvb_find_uint8(ptr noundef %0, i32 noundef %8, i32 noundef %4, i8 noundef zeroext 58)
  %.not80 = icmp eq i32 %9, -1
  br i1 %.not80, label %10, label %.preheader, !llvm.loop !12

10:                                               ; preds = %.preheader
  %11 = getelementptr inbounds nuw i8, ptr %1, i64 408
  %12 = load ptr, ptr %11, align 8
  %13 = sub i32 %.075, %3
  %14 = tail call ptr @tvb_get_string_enc(ptr noundef %12, ptr noundef %0, i32 noundef %3, i32 noundef %13, i32 noundef 0)
  br i1 %.074, label %15, label %22

15:                                               ; preds = %10
  %16 = call zeroext i1 @str_to_ip6(ptr noundef %14, ptr noundef nonnull %6)
  br i1 %16, label %17, label %20

17:                                               ; preds = %15
  %18 = load i32, ptr @hf_rtpproxy_notify_ipv6, align 4
  %19 = call ptr @proto_tree_add_ipv6(ptr noundef %2, i32 noundef %18, ptr noundef %0, i32 noundef %3, i32 noundef %13, ptr noundef nonnull %6)
  br label %30

20:                                               ; preds = %15
  %21 = call ptr @proto_tree_add_expert(ptr noundef %2, ptr noundef %1, ptr noundef nonnull @ei_rtpproxy_bad_ipv6, ptr noundef %0, i32 noundef %3, i32 noundef %13)
  br label %30

22:                                               ; preds = %10
  %23 = call zeroext i1 @str_to_ip(ptr noundef %14, ptr noundef nonnull %6)
  br i1 %23, label %24, label %28

24:                                               ; preds = %22
  %25 = load i32, ptr @hf_rtpproxy_notify_ipv4, align 4
  %26 = load i32, ptr %6, align 16
  %27 = call ptr @proto_tree_add_ipv4(ptr noundef %2, i32 noundef %25, ptr noundef %0, i32 noundef %3, i32 noundef %13, i32 noundef %26)
  br label %30

28:                                               ; preds = %22
  %29 = call ptr @proto_tree_add_expert(ptr noundef %2, ptr noundef %1, ptr noundef nonnull @ei_rtpproxy_bad_ipv4, ptr noundef %0, i32 noundef %3, i32 noundef %13)
  br label %30

30:                                               ; preds = %24, %28, %17, %20
  %31 = load i32, ptr @hf_rtpproxy_notify_port, align 4
  %32 = sub i32 %4, %8
  %33 = getelementptr inbounds nuw i8, ptr %1, i64 408
  %34 = load ptr, ptr %33, align 8
  %35 = call ptr @tvb_get_string_enc(ptr noundef %34, ptr noundef %0, i32 noundef %8, i32 noundef %32, i32 noundef 0)
  %36 = call i64 @g_ascii_strtoull(ptr noundef %35, ptr noundef null, i32 noundef 10)
  %37 = trunc i64 %36 to i32
  %38 = and i32 %37, 65535
  %39 = call ptr @proto_tree_add_uint(ptr noundef %2, i32 noundef %31, ptr noundef %0, i32 noundef %8, i32 noundef %32, i32 noundef %38)
  br label %.thread

40:                                               ; preds = %5
  %41 = tail call ptr @expert_add_info(ptr noundef %1, ptr noundef %2, ptr noundef nonnull @ei_rtpproxy_notify_no_ip)
  %42 = getelementptr inbounds nuw i8, ptr %1, i64 208
  %43 = load i32, ptr %42, align 8
  switch i32 %43, label %.thread [
    i32 2, label %44
    i32 3, label %50
  ]

44:                                               ; preds = %40
  %45 = getelementptr inbounds nuw i8, ptr %1, i64 216
  %46 = load ptr, ptr %45, align 8
  %47 = load i32, ptr %46, align 1
  %48 = load i32, ptr @hf_rtpproxy_notify_ipv4, align 4
  %49 = tail call ptr @proto_tree_add_ipv4(ptr noundef %2, i32 noundef %48, ptr noundef %0, i32 noundef %3, i32 noundef 0, i32 noundef %47)
  br label %55

50:                                               ; preds = %40
  %51 = load i32, ptr @hf_rtpproxy_notify_ipv6, align 4
  %52 = getelementptr inbounds nuw i8, ptr %1, i64 216
  %53 = load ptr, ptr %52, align 8
  %54 = tail call ptr @proto_tree_add_ipv6(ptr noundef %2, i32 noundef %51, ptr noundef %0, i32 noundef %3, i32 noundef 0, ptr noundef %53)
  br label %55

55:                                               ; preds = %50, %44
  %.0 = phi ptr [ %49, %44 ], [ %54, %50 ]
  %.not79 = icmp eq ptr %.0, null
  br i1 %.not79, label %.thread, label %56

56:                                               ; preds = %55
  %57 = getelementptr inbounds nuw i8, ptr %.0, i64 40
  %58 = load ptr, ptr %57, align 8
  %.not5.i = icmp eq ptr %58, null
  br i1 %.not5.i, label %proto_item_set_generated.exit, label %59

59:                                               ; preds = %56
  %60 = getelementptr inbounds nuw i8, ptr %58, i64 28
  %61 = load i32, ptr %60, align 4
  %62 = or i32 %61, 2
  store i32 %62, ptr %60, align 4
  br label %proto_item_set_generated.exit

proto_item_set_generated.exit:                    ; preds = %56, %59
  %63 = load i32, ptr @hf_rtpproxy_notify_port, align 4
  %64 = sub i32 %4, %3
  %65 = getelementptr inbounds nuw i8, ptr %1, i64 408
  %66 = load ptr, ptr %65, align 8
  %67 = tail call ptr @tvb_get_string_enc(ptr noundef %66, ptr noundef %0, i32 noundef %3, i32 noundef %64, i32 noundef 0)
  %68 = tail call i64 @g_ascii_strtoull(ptr noundef %67, ptr noundef null, i32 noundef 10)
  %69 = trunc i64 %68 to i32
  %70 = and i32 %69, 65535
  %71 = tail call ptr @proto_tree_add_uint(ptr noundef %2, i32 noundef %63, ptr noundef %0, i32 noundef %3, i32 noundef %64, i32 noundef %70)
  br label %.thread

.thread:                                          ; preds = %40, %55, %proto_item_set_generated.exit, %30
  call void @llvm.lifetime.end.p0(i64 16, ptr nonnull %6) #10
  ret void
}